target datalayout = "e-m:e-p270:32:32-p271:32:32-p272:64:64-i64:64-i128:128-f80:128-n8:16:32:64-S128"
target triple = "x86_64-pc-linux-gnu"

%struct.epan_uat = type { ptr, i64, ptr, i8, ptr, i32, ptr, ptr, ptr, ptr, ptr, ptr, ptr, ptr, ptr, i32, ptr, ptr, ptr, i8, ptr, ptr, i8 }
%struct._uat_field_t = type { ptr, ptr, i32, %struct.anon, %struct.anon.0, ptr, ptr, ptr }
%struct.anon = type { ptr, ptr, ptr }
%struct.anon.0 = type { ptr, ptr, ptr }
%struct._fld_data_t = type { i32, ptr, ptr }

@all_uats = internal global ptr null, align 8

; Function Attrs: null_pointer_is_valid sspstrong uwtable
define ptr @uat_new(ptr noundef %0, i64 noundef %1, ptr noundef %2, i1 noundef zeroext %3, ptr noundef %4, ptr noundef %5, i32 noundef %6, ptr noundef %7, ptr noundef %8, ptr noundef %9, ptr noundef %10, ptr noundef %11, ptr noundef %12, ptr noundef %13) #0 {
  %15 = alloca ptr, align 8
  %16 = alloca i64, align 8
  %17 = alloca ptr, align 8
  %18 = alloca i8, align 1
  %19 = alloca ptr, align 8
  %20 = alloca ptr, align 8
  %21 = alloca i32, align 4
  %22 = alloca ptr, align 8
  %23 = alloca ptr, align 8
  %24 = alloca ptr, align 8
  %25 = alloca ptr, align 8
  %26 = alloca ptr, align 8
  %27 = alloca ptr, align 8
  %28 = alloca ptr, align 8
  %29 = alloca ptr, align 8
  %30 = alloca i64, align 8
  %31 = alloca i64, align 8
  %32 = alloca ptr, align 8
  %33 = alloca ptr, align 8
  %34 = alloca i32, align 4
  %35 = alloca ptr, align 8
  %36 = alloca i64, align 8
  %37 = alloca i64, align 8
  %38 = alloca ptr, align 8
  %39 = alloca ptr, align 8
  store ptr %0, ptr %15, align 8
  store i64 %1, ptr %16, align 8
  store ptr %2, ptr %17, align 8
  %40 = zext i1 %3 to i8
  store i8 %40, ptr %18, align 1
  store ptr %4, ptr %19, align 8
  store ptr %5, ptr %20, align 8
  store i32 %6, ptr %21, align 4
  store ptr %7, ptr %22, align 8
  store ptr %8, ptr %23, align 8
  store ptr %9, ptr %24, align 8
  store ptr %10, ptr %25, align 8
  store ptr %11, ptr %26, align 8
  store ptr %12, ptr %27, align 8
  store ptr %13, ptr %28, align 8
  call void @llvm.lifetime.start.p0(i64 8, ptr %29) #13
  call void @llvm.lifetime.start.p0(i64 8, ptr %30) #13
  store i64 1, ptr %30, align 8
  call void @llvm.lifetime.start.p0(i64 8, ptr %31) #13
  store i64 184, ptr %31, align 8
  call void @llvm.lifetime.start.p0(i64 8, ptr %32) #13
  %41 = load i64, ptr %31, align 8
  %42 = icmp eq i64 %41, 1
  br i1 %42, label %43, label %46

43:                                               ; preds = %14
  %44 = load i64, ptr %30, align 8
  %45 = call noalias ptr @g_malloc(i64 noundef %44) #14
  store ptr %45, ptr %32, align 8
  br label %67

46:                                               ; preds = %14
  %47 = load i64, ptr %30, align 8
  %48 = call i1 @llvm.is.constant.i64(i64 %47)
  br i1 %48, label %49, label %62

49:                                               ; preds = %46
  %50 = load i64, ptr %31, align 8
  %51 = icmp eq i64 %50, 0
  br i1 %51, label %57, label %52

52:                                               ; preds = %49
  %53 = load i64, ptr %30, align 8
  %54 = load i64, ptr %31, align 8
  %55 = udiv i64 -1, %54
  %56 = icmp ule i64 %53, %55
  br i1 %56, label %57, label %62

57:                                               ; preds = %52, %49
  %58 = load i64, ptr %30, align 8
  %59 = load i64, ptr %31, align 8
  %60 = mul i64 %58, %59
  %61 = call noalias ptr @g_malloc(i64 noundef %60) #14
  store ptr %61, ptr %32, align 8
  br label %66

62:                                               ; preds = %52, %46
  %63 = load i64, ptr %30, align 8
  %64 = load i64, ptr %31, align 8
  %65 = call noalias ptr @g_malloc_n(i64 noundef %63, i64 noundef %64) #15
  store ptr %65, ptr %32, align 8
  br label %66

66:                                               ; preds = %62, %57
  br label %67

67:                                               ; preds = %66, %43
  %68 = load ptr, ptr %32, align 8
  store ptr %68, ptr %33, align 8
  call void @llvm.lifetime.end.p0(i64 8, ptr %32) #13
  call void @llvm.lifetime.end.p0(i64 8, ptr %31) #13
  call void @llvm.lifetime.end.p0(i64 8, ptr %30) #13
  %69 = load ptr, ptr %33, align 8
  store ptr %69, ptr %29, align 8
  call void @llvm.lifetime.start.p0(i64 4, ptr %34) #13
  %70 = load ptr, ptr @all_uats, align 8
  %71 = icmp ne ptr %70, null
  br i1 %71, label %74, label %72

72:                                               ; preds = %67
  %73 = call ptr @g_ptr_array_new()
  store ptr %73, ptr @all_uats, align 8
  br label %74

74:                                               ; preds = %72, %67
  %75 = load ptr, ptr @all_uats, align 8
  %76 = load ptr, ptr %29, align 8
  call void @g_ptr_array_add(ptr noundef %75, ptr noundef %76)
  br label %77

77:                                               ; preds = %74
  br label %78

78:                                               ; preds = %77
  br label %79

79:                                               ; preds = %78
  %80 = load ptr, ptr %15, align 8
  %81 = call noalias ptr @g_strdup(ptr noundef %80)
  %82 = load ptr, ptr %29, align 8
  %83 = getelementptr inbounds nuw %struct.epan_uat, ptr %82, i32 0, i32 0
  store ptr %81, ptr %83, align 8
  %84 = load i64, ptr %16, align 8
  %85 = load ptr, ptr %29, align 8
  %86 = getelementptr inbounds nuw %struct.epan_uat, ptr %85, i32 0, i32 1
  store i64 %84, ptr %86, align 8
  %87 = load ptr, ptr %17, align 8
  %88 = call noalias ptr @g_strdup(ptr noundef %87)
  %89 = load ptr, ptr %29, align 8
  %90 = getelementptr inbounds nuw %struct.epan_uat, ptr %89, i32 0, i32 2
  store ptr %88, ptr %90, align 8
  %91 = load i8, ptr %18, align 1, !range !6, !noundef !7
  %92 = trunc i8 %91 to i1
  %93 = load ptr, ptr %29, align 8
  %94 = getelementptr inbounds nuw %struct.epan_uat, ptr %93, i32 0, i32 3
  %95 = zext i1 %92 to i8
  store i8 %95, ptr %94, align 8
  %96 = load ptr, ptr %19, align 8
  %97 = load ptr, ptr %29, align 8
  %98 = getelementptr inbounds nuw %struct.epan_uat, ptr %97, i32 0, i32 6
  store ptr %96, ptr %98, align 8
  %99 = load ptr, ptr %20, align 8
  %100 = load ptr, ptr %29, align 8
  %101 = getelementptr inbounds nuw %struct.epan_uat, ptr %100, i32 0, i32 7
  store ptr %99, ptr %101, align 8
  %102 = load ptr, ptr %23, align 8
  %103 = load ptr, ptr %29, align 8
  %104 = getelementptr inbounds nuw %struct.epan_uat, ptr %103, i32 0, i32 8
  store ptr %102, ptr %104, align 8
  %105 = load ptr, ptr %24, align 8
  %106 = load ptr, ptr %29, align 8
  %107 = getelementptr inbounds nuw %struct.epan_uat, ptr %106, i32 0, i32 9
  store ptr %105, ptr %107, align 8
  %108 = load ptr, ptr %25, align 8
  %109 = load ptr, ptr %29, align 8
  %110 = getelementptr inbounds nuw %struct.epan_uat, ptr %109, i32 0, i32 10
  store ptr %108, ptr %110, align 8
  %111 = load ptr, ptr %26, align 8
  %112 = load ptr, ptr %29, align 8
  %113 = getelementptr inbounds nuw %struct.epan_uat, ptr %112, i32 0, i32 11
  store ptr %111, ptr %113, align 8
  %114 = load ptr, ptr %27, align 8
  %115 = load ptr, ptr %29, align 8
  %116 = getelementptr inbounds nuw %struct.epan_uat, ptr %115, i32 0, i32 12
  store ptr %114, ptr %116, align 8
  %117 = load ptr, ptr %28, align 8
  %118 = load ptr, ptr %29, align 8
  %119 = getelementptr inbounds nuw %struct.epan_uat, ptr %118, i32 0, i32 13
  store ptr %117, ptr %119, align 8
  %120 = load ptr, ptr %29, align 8
  %121 = getelementptr inbounds nuw %struct.epan_uat, ptr %120, i32 0, i32 14
  store ptr null, ptr %121, align 8
  %122 = load ptr, ptr %29, align 8
  %123 = getelementptr inbounds nuw %struct.epan_uat, ptr %122, i32 0, i32 1
  %124 = load i64, ptr %123, align 8
  %125 = trunc i64 %124 to i32
  %126 = call ptr @g_array_new(i32 noundef 0, i32 noundef 0, i32 noundef %125)
  %127 = load ptr, ptr %29, align 8
  %128 = getelementptr inbounds nuw %struct.epan_uat, ptr %127, i32 0, i32 16
  store ptr %126, ptr %128, align 8
  %129 = load ptr, ptr %29, align 8
  %130 = getelementptr inbounds nuw %struct.epan_uat, ptr %129, i32 0, i32 1
  %131 = load i64, ptr %130, align 8
  %132 = trunc i64 %131 to i32
  %133 = call ptr @g_array_new(i32 noundef 0, i32 noundef 0, i32 noundef %132)
  %134 = load ptr, ptr %29, align 8
  %135 = getelementptr inbounds nuw %struct.epan_uat, ptr %134, i32 0, i32 17
  store ptr %133, ptr %135, align 8
  %136 = call ptr @g_array_new(i32 noundef 0, i32 noundef 0, i32 noundef 1)
  %137 = load ptr, ptr %29, align 8
  %138 = getelementptr inbounds nuw %struct.epan_uat, ptr %137, i32 0, i32 18
  store ptr %136, ptr %138, align 8
  %139 = load ptr, ptr %29, align 8
  %140 = getelementptr inbounds nuw %struct.epan_uat, ptr %139, i32 0, i32 19
  store i8 0, ptr %140, align 8
  %141 = load ptr, ptr %29, align 8
  %142 = getelementptr inbounds nuw %struct.epan_uat, ptr %141, i32 0, i32 22
  store i8 0, ptr %142, align 8
  %143 = load ptr, ptr %29, align 8
  %144 = getelementptr inbounds nuw %struct.epan_uat, ptr %143, i32 0, i32 20
  store ptr null, ptr %144, align 8
  %145 = load ptr, ptr %29, align 8
  %146 = getelementptr inbounds nuw %struct.epan_uat, ptr %145, i32 0, i32 21
  store ptr null, ptr %146, align 8
  %147 = load ptr, ptr %22, align 8
  %148 = call noalias ptr @g_strdup(ptr noundef %147)
  %149 = load ptr, ptr %29, align 8
  %150 = getelementptr inbounds nuw %struct.epan_uat, ptr %149, i32 0, i32 4
  store ptr %148, ptr %150, align 8
  %151 = load i32, ptr %21, align 4
  %152 = load ptr, ptr %29, align 8
  %153 = getelementptr inbounds nuw %struct.epan_uat, ptr %152, i32 0, i32 5
  store i32 %151, ptr %153, align 8
  store i32 0, ptr %34, align 4
  br label %154

154:                                              ; preds = %206, %79
  %155 = load ptr, ptr %28, align 8
  %156 = load i32, ptr %34, align 4
  %157 = zext i32 %156 to i64
  %158 = getelementptr %struct._uat_field_t, ptr %155, i64 %157
  %159 = getelementptr inbounds nuw %struct._uat_field_t, ptr %158, i32 0, i32 1
  %160 = load ptr, ptr %159, align 8
  %161 = icmp ne ptr %160, null
  br i1 %161, label %162, label %209

162:                                              ; preds = %154
  call void @llvm.lifetime.start.p0(i64 8, ptr %35) #13
  call void @llvm.lifetime.start.p0(i64 8, ptr %36) #13
  store i64 1, ptr %36, align 8
  call void @llvm.lifetime.start.p0(i64 8, ptr %37) #13
  store i64 24, ptr %37, align 8
  call void @llvm.lifetime.start.p0(i64 8, ptr %38) #13
  %163 = load i64, ptr %37, align 8
  %164 = icmp eq i64 %163, 1
  br i1 %164, label %165, label %168

165:                                              ; preds = %162
  %166 = load i64, ptr %36, align 8
  %167 = call noalias ptr @g_malloc(i64 noundef %166) #14
  store ptr %167, ptr %38, align 8
  br label %189

168:                                              ; preds = %162
  %169 = load i64, ptr %36, align 8
  %170 = call i1 @llvm.is.constant.i64(i64 %169)
  br i1 %170, label %171, label %184

171:                                              ; preds = %168
  %172 = load i64, ptr %37, align 8
  %173 = icmp eq i64 %172, 0
  br i1 %173, label %179, label %174

174:                                              ; preds = %171
  %175 = load i64, ptr %36, align 8
  %176 = load i64, ptr %37, align 8
  %177 = udiv i64 -1, %176
  %178 = icmp ule i64 %175, %177
  br i1 %178, label %179, label %184

179:                                              ; preds = %174, %171
  %180 = load i64, ptr %36, align 8
  %181 = load i64, ptr %37, align 8
  %182 = mul i64 %180, %181
  %183 = call noalias ptr @g_malloc(i64 noundef %182) #14
  store ptr %183, ptr %38, align 8
  br label %188

184:                                              ; preds = %174, %168
  %185 = load i64, ptr %36, align 8
  %186 = load i64, ptr %37, align 8
  %187 = call noalias ptr @g_malloc_n(i64 noundef %185, i64 noundef %186) #15
  store ptr %187, ptr %38, align 8
  br label %188

188:                                              ; preds = %184, %179
  br label %189

189:                                              ; preds = %188, %165
  %190 = load ptr, ptr %38, align 8
  store ptr %190, ptr %39, align 8
  call void @llvm.lifetime.end.p0(i64 8, ptr %38) #13
  call void @llvm.lifetime.end.p0(i64 8, ptr %37) #13
  call void @llvm.lifetime.end.p0(i64 8, ptr %36) #13
  %191 = load ptr, ptr %39, align 8
  store ptr %191, ptr %35, align 8
  %192 = load i32, ptr %34, align 4
  %193 = add i32 %192, 1
  %194 = load ptr, ptr %35, align 8
  %195 = getelementptr inbounds nuw %struct._fld_data_t, ptr %194, i32 0, i32 0
  store i32 %193, ptr %195, align 8
  %196 = load ptr, ptr %35, align 8
  %197 = getelementptr inbounds nuw %struct._fld_data_t, ptr %196, i32 0, i32 1
  store ptr null, ptr %197, align 8
  %198 = load ptr, ptr %35, align 8
  %199 = getelementptr inbounds nuw %struct._fld_data_t, ptr %198, i32 0, i32 2
  store ptr null, ptr %199, align 8
  %200 = load ptr, ptr %35, align 8
  %201 = load ptr, ptr %28, align 8
  %202 = load i32, ptr %34, align 4
  %203 = zext i32 %202 to i64
  %204 = getelementptr %struct._uat_field_t, ptr %201, i64 %203
  %205 = getelementptr inbounds nuw %struct._uat_field_t, ptr %204, i32 0, i32 7
  store ptr %200, ptr %205, align 8
  call void @llvm.lifetime.end.p0(i64 8, ptr %35) #13
  br label %206

206:                                              ; preds = %189
  %207 = load i32, ptr %34, align 4
  %208 = add i32 %207, 1
  store i32 %208, ptr %34, align 4
  br label %154, !llvm.loop !8

209:                                              ; preds = %154
  %210 = load i32, ptr %34, align 4
  %211 = load ptr, ptr %29, align 8
  %212 = getelementptr inbounds nuw %struct.epan_uat, ptr %211, i32 0, i32 15
  store i32 %210, ptr %212, align 8
  %213 = load ptr, ptr %19, align 8
  store ptr null, ptr %213, align 8
  %214 = load ptr, ptr %20, align 8
  store i32 0, ptr %214, align 4
  %215 = load ptr, ptr %29, align 8
  call void @llvm.lifetime.end.p0(i64 4, ptr %34) #13
  call void @llvm.lifetime.end.p0(i64 8, ptr %29) #13
  ret ptr %215
}