; Function Attrs: null_pointer_is_valid sspstrong uwtable
define noundef ptr @uat_new(ptr noundef %0, i64 noundef %1, ptr noundef %2, i1 noundef zeroext %3, ptr noundef %4, ptr noundef %5, i32 noundef %6, ptr noundef %7, ptr noundef %8, ptr noundef %9, ptr noundef %10, ptr noundef %11, ptr noundef %12, ptr noundef %13) local_unnamed_addr #0 {
  %15 = zext i1 %3 to i8
  %16 = tail call noalias dereferenceable_or_null(184) ptr @g_malloc(i64 noundef 184) #16
  %17 = load ptr, ptr @all_uats, align 8
  %.not = icmp eq ptr %17, null
  br i1 %.not, label %18, label %20

18:                                               ; preds = %14
  %19 = tail call ptr @g_ptr_array_new()
  store ptr %19, ptr @all_uats, align 8
  br label %20

20:                                               ; preds = %18, %14
  %21 = phi ptr [ %19, %18 ], [ %17, %14 ]
  tail call void @g_ptr_array_add(ptr noundef %21, ptr noundef %16)
  %22 = tail call noalias ptr @g_strdup(ptr noundef %0)
  store ptr %22, ptr %16, align 8
  %23 = getelementptr inbounds nuw i8, ptr %16, i64 8
  store i64 %1, ptr %23, align 8
  %24 = tail call noalias ptr @g_strdup(ptr noundef %2)
  %25 = getelementptr inbounds nuw i8, ptr %16, i64 16
  store ptr %24, ptr %25, align 8
  %26 = getelementptr inbounds nuw i8, ptr %16, i64 24
  store i8 %15, ptr %26, align 8
  %27 = getelementptr inbounds nuw i8, ptr %16, i64 48
  store ptr %4, ptr %27, align 8
  %28 = getelementptr inbounds nuw i8, ptr %16, i64 56
  store ptr %5, ptr %28, align 8
  %29 = getelementptr inbounds nuw i8, ptr %16, i64 64
  store ptr %8, ptr %29, align 8
  %30 = getelementptr inbounds nuw i8, ptr %16, i64 72
  store ptr %9, ptr %30, align 8
  %31 = getelementptr inbounds nuw i8, ptr %16, i64 80
  store ptr %10, ptr %31, align 8
  %32 = getelementptr inbounds nuw i8, ptr %16, i64 88
  store ptr %11, ptr %32, align 8
  %33 = getelementptr inbounds nuw i8, ptr %16, i64 96
  store ptr %12, ptr %33, align 8
  %34 = getelementptr inbounds nuw i8, ptr %16, i64 104
  store ptr %13, ptr %34, align 8
  %35 = getelementptr inbounds nuw i8, ptr %16, i64 112
  store ptr null, ptr %35, align 8
  %36 = load i64, ptr %23, align 8
  %37 = trunc i64 %36 to i32
  %38 = tail call ptr @g_array_new(i32 noundef 0, i32 noundef 0, i32 noundef %37)
  %39 = getelementptr inbounds nuw i8, ptr %16, i64 128
  store ptr %38, ptr %39, align 8
  %40 = load i64, ptr %23, align 8
  %41 = trunc i64 %40 to i32
  %42 = tail call ptr @g_array_new(i32 noundef 0, i32 noundef 0, i32 noundef %41)
  %43 = getelementptr inbounds nuw i8, ptr %16, i64 136
  store ptr %42, ptr %43, align 8
  %44 = tail call ptr @g_array_new(i32 noundef 0, i32 noundef 0, i32 noundef 1)
  %45 = getelementptr inbounds nuw i8, ptr %16, i64 144
  store ptr %44, ptr %45, align 8
  %46 = getelementptr inbounds nuw i8, ptr %16, i64 152
  store i8 0, ptr %46, align 8
  %47 = getelementptr inbounds nuw i8, ptr %16, i64 160
  tail call void @llvm.memset.p0.i64(ptr noundef nonnull align 8 dereferenceable(17) %47, i8 0, i64 17, i1 false)
  %48 = tail call noalias ptr @g_strdup(ptr noundef %7)
  %49 = getelementptr inbounds nuw i8, ptr %16, i64 32
  store ptr %48, ptr %49, align 8
  %50 = getelementptr inbounds nuw i8, ptr %16, i64 40
  store i32 %6, ptr %50, align 8
  %51 = getelementptr inbounds nuw i8, ptr %13, i64 8
  %52 = load ptr, ptr %51, align 8
  %.not7980 = icmp eq ptr %52, null
  br i1 %.not7980, label %._crit_edge, label %.lr.ph

.lr.ph:                                           ; preds = %20, %.lr.ph
  %53 = phi ptr [ %59, %.lr.ph ], [ %13, %20 ]
  %.07881 = phi i32 [ %55, %.lr.ph ], [ 0, %20 ]
  %54 = tail call noalias dereferenceable_or_null(24) ptr @g_malloc(i64 noundef 24) #16
  %55 = add i32 %.07881, 1
  store i32 %55, ptr %54, align 8
  %56 = getelementptr inbounds nuw i8, ptr %54, i64 8
  %57 = getelementptr inbounds nuw i8, ptr %53, i64 88
  tail call void @llvm.memset.p0.i64(ptr noundef nonnull align 8 dereferenceable(16) %56, i8 0, i64 16, i1 false)
  store ptr %54, ptr %57, align 8
  %58 = zext i32 %55 to i64
  %59 = getelementptr %struct._uat_field_t, ptr %13, i64 %58
  %60 = getelementptr inbounds nuw i8, ptr %59, i64 8
  %61 = load ptr, ptr %60, align 8
  %.not79 = icmp eq ptr %61, null
  br i1 %.not79, label %._crit_edge, label %.lr.ph, !llvm.loop !6

._crit_edge:                                      ; preds = %.lr.ph, %20
  %.078.lcssa = phi i32 [ 0, %20 ], [ %55, %.lr.ph ]
  %62 = getelementptr inbounds nuw i8, ptr %16, i64 120
  store i32 %.078.lcssa, ptr %62, align 8
  store ptr null, ptr %4, align 8
  store i32 0, ptr %5, align 4
  ret ptr %16
}